; ModuleID = 'source-C-CXX/2/507.c'
source_filename = "source-C-CXX/2/507.c"
target datalayout = "e-m:e-p270:32:32-p271:32:32-p272:64:64-i64:64-f80:128-n8:16:32:64-S128"
target triple = "x86_64-pc-linux-gnu"

@.str = private unnamed_addr constant [6 x i8] c"%d %d\00", align 1
@.str.1 = private unnamed_addr constant [3 x i8] c"%d\00", align 1
@str = private unnamed_addr constant [3 x i8] c"no\00", align 1
@str.4 = private unnamed_addr constant [4 x i8] c"yes\00", align 1

; Function Attrs: nofree nounwind sspstrong uwtable
define dso_local void @main() local_unnamed_addr #0 {
  %1 = alloca i32, align 4
  %2 = alloca i32, align 4
  %3 = alloca [10000 x i32], align 16
  %4 = bitcast i32* %1 to i8*
  call void @llvm.lifetime.start.p0i8(i64 4, i8* nonnull %4) #4
  %5 = bitcast i32* %2 to i8*
  call void @llvm.lifetime.start.p0i8(i64 4, i8* nonnull %5) #4
  %6 = bitcast [10000 x i32]* %3 to i8*
  call void @llvm.lifetime.start.p0i8(i64 40000, i8* nonnull %6) #4
  %7 = call i32 (i8*, ...) @__isoc99_scanf(i8* getelementptr inbounds ([6 x i8], [6 x i8]* @.str, i64 0, i64 0), i32* nonnull %1, i32* nonnull %2)
  %8 = load i32, i32* %1, align 4, !tbaa !5
  %9 = icmp sgt i32 %8, 0
  br i1 %9, label %15, label %53

10:                                               ; preds = %15
  %11 = load i32, i32* %2, align 4
  %12 = icmp sgt i32 %20, 0
  br i1 %12, label %13, label %53

13:                                               ; preds = %10
  %14 = zext i32 %20 to i64
  br label %23

15:                                               ; preds = %0, %15
  %16 = phi i64 [ %19, %15 ], [ 0, %0 ]
  %17 = getelementptr inbounds [10000 x i32], [10000 x i32]* %3, i64 0, i64 %16
  %18 = call i32 (i8*, ...) @__isoc99_scanf(i8* getelementptr inbounds ([3 x i8], [3 x i8]* @.str.1, i64 0, i64 0), i32* nonnull %17)
  %19 = add nuw nsw i64 %16, 1
  %20 = load i32, i32* %1, align 4, !tbaa !5
  %21 = sext i32 %20 to i64
  %22 = icmp slt i64 %19, %21
  br i1 %22, label %15, label %10, !llvm.loop !9

23:                                               ; preds = %13, %44
  %24 = phi i64 [ 0, %13 ], [ %46, %44 ]
  %25 = phi i32 [ %20, %13 ], [ %47, %44 ]
  %26 = trunc i64 %24 to i32
  %27 = icmp sgt i32 %20, %26
  br i1 %27, label %28, label %44

28:                                               ; preds = %23
  %29 = getelementptr inbounds [10000 x i32], [10000 x i32]* %3, i64 0, i64 %24
  %30 = load i32, i32* %29, align 4, !tbaa !5
  %31 = zext i32 %25 to i64
  br label %34

32:                                               ; preds = %34
  %33 = icmp eq i64 %40, %31
  br i1 %33, label %44, label %34, !llvm.loop !11

34:                                               ; preds = %28, %32
  %35 = phi i64 [ 0, %28 ], [ %40, %32 ]
  %36 = getelementptr inbounds [10000 x i32], [10000 x i32]* %3, i64 0, i64 %35
  %37 = load i32, i32* %36, align 4, !tbaa !5
  %38 = add nsw i32 %37, %30
  %39 = icmp eq i32 %38, %11
  %40 = add nuw nsw i64 %35, 1
  br i1 %39, label %41, label %32

41:                                               ; preds = %34
  %42 = call i32 @puts(i8* nonnull dereferenceable(1) getelementptr inbounds ([4 x i8], [4 x i8]* @str.4, i64 0, i64 0))
  %43 = load i32, i32* %2, align 4, !tbaa !5
  br label %49

44:                                               ; preds = %32, %23
  %45 = phi i32 [ 0, %23 ], [ %38, %32 ]
  %46 = add nuw nsw i64 %24, 1
  %47 = add i32 %25, -1
  %48 = icmp eq i64 %46, %14
  br i1 %48, label %49, label %23, !llvm.loop !12

49:                                               ; preds = %44, %41
  %50 = phi i32 [ %43, %41 ], [ %11, %44 ]
  %51 = phi i32 [ %11, %41 ], [ %45, %44 ]
  %52 = icmp eq i32 %51, %50
  br i1 %52, label %55, label %53

53:                                               ; preds = %0, %10, %49
  %54 = call i32 @puts(i8* nonnull dereferenceable(1) getelementptr inbounds ([3 x i8], [3 x i8]* @str, i64 0, i64 0))
  br label %55

55:                                               ; preds = %53, %49
  call void @llvm.lifetime.end.p0i8(i64 40000, i8* nonnull %6) #4
  call void @llvm.lifetime.end.p0i8(i64 4, i8* nonnull %5) #4
  call void @llvm.lifetime.end.p0i8(i64 4, i8* nonnull %4) #4
  ret void
}

; Function Attrs: argmemonly mustprogress nofree nosync nounwind willreturn
declare void @llvm.lifetime.start.p0i8(i64 immarg, i8* nocapture) #1

; Function Attrs: nofree nounwind
declare noundef i32 @__isoc99_scanf(i8* nocapture noundef readonly, ...) local_unnamed_addr #2

; Function Attrs: argmemonly mustprogress nofree nosync nounwind willreturn
declare void @llvm.lifetime.end.p0i8(i64 immarg, i8* nocapture) #1

; Function Attrs: nofree nounwind
declare noundef i32 @puts(i8* nocapture noundef readonly) local_unnamed_addr #3


!llvm.module.flags = !{!0, !1, !2, !3}
!llvm.ident = !{!4}

!0 = !{i32 1, !"wchar_size", i32 4}
!1 = !{i32 7, !"PIC Level", i32 2}
!2 = !{i32 7, !"PIE Level", i32 2}
!3 = !{i32 7, !"uwtable", i32 1}
!4 = !{!"clang version 13.0.0"}
!5 = !{!6, !6, i64 0}
!6 = !{!"int", !7, i64 0}
!7 = !{!"omnipotent char", !8, i64 0}
!8 = !{!"Simple C/C++ TBAA"}
!9 = distinct !{!9, !10}
!10 = !{!"llvm.loop.mustprogress"}
!11 = distinct !{!11, !10}
!12 = distinct !{!12, !10}
